target datalayout = "e-m:e-p270:32:32-p271:32:32-p272:64:64-i64:64-i128:128-f80:128-n8:16:32:64-S128"
target triple = "x86_64-unknown-linux-gnu"

%class.rational = type { %class.mpq }
%class.mpq = type { %class.mpz, %class.mpz }
%class.mpz = type { i32, i8, ptr }
%"struct.nla::common" = type { ptr, %"class.nla::nex_creator" }
%"class.nla::nex_creator" = type { %class.ptr_vector, %"class.std::unordered_map", %"class.std::unordered_map.2", %class.svector, %"class.nla::nex_creator::mul_factory" }
%class.ptr_vector = type { %class.vector }
%class.vector = type { ptr }
%"class.std::unordered_map" = type { %"class.std::_Hashtable" }
%"class.std::_Hashtable" = type { ptr, i64, %"struct.std::__detail::_Hash_node_base", i64, %"struct.std::__detail::_Prime_rehash_policy", ptr }
%"struct.std::__detail::_Hash_node_base" = type { ptr }
%"struct.std::__detail::_Prime_rehash_policy" = type { float, i64 }
%"class.std::unordered_map.2" = type { %"class.std::_Hashtable.3" }
%"class.std::_Hashtable.3" = type { ptr, i64, %"struct.std::__detail::_Hash_node_base", i64, %"struct.std::__detail::_Prime_rehash_policy", ptr }
%class.svector = type { %class.vector.16 }
%class.vector.16 = type { ptr }
%"class.nla::nex_creator::mul_factory" = type { ptr, %class.rational, %class.vector.17 }
%class.vector.17 = type { ptr }
%"class.nla::mon_eq" = type { i32, %class.svector }
%class.anon = type { ptr, ptr }

; Function Attrs: mustprogress nounwind uwtable
define linkonce_odr hidden noundef i32 @_ZNK6vectorIjLb0EjE4sizeEv(ptr noundef nonnull align 8 dereferenceable(8) %this) #4 comdat align 2 {
entry:
  %retval = alloca i32, align 4
  %this.addr = alloca ptr, align 8
  store ptr %this, ptr %this.addr, align 8
  %this1 = load ptr, ptr %this.addr, align 8
  %m_data = getelementptr inbounds %class.vector.16, ptr %this1, i32 0, i32 0
  %0 = load ptr, ptr %m_data, align 8
  %cmp = icmp eq ptr %0, null
  br i1 %cmp, label %if.then, label %if.end

if.then:                                          ; preds = %entry
  store i32 0, ptr %retval, align 4
  br label %return

if.end:                                           ; preds = %entry
  %m_data2 = getelementptr inbounds %class.vector.16, ptr %this1, i32 0, i32 0
  %1 = load ptr, ptr %m_data2, align 8
  %arrayidx = getelementptr inbounds i32, ptr %1, i64 -1
  %2 = load i32, ptr %arrayidx, align 4
  store i32 %2, ptr %retval, align 4
  br label %return

return:                                           ; preds = %if.end, %if.then
  %3 = load i32, ptr %retval, align 4
  ret i32 %3
}

; Function Attrs: mustprogress nounwind uwtable
define linkonce_odr hidden noundef nonnull align 8 dereferenceable(4720) ptr @_ZN3nla6common1cEv(ptr noundef nonnull align 8 dereferenceable(184) %this) #4 comdat align 2 {
entry:
  %this.addr = alloca ptr, align 8
  store ptr %this, ptr %this.addr, align 8
  %this1 = load ptr, ptr %this.addr, align 8
  %m_core = getelementptr inbounds %"struct.nla::common", ptr %this1, i32 0, i32 0
  %0 = load ptr, ptr %m_core, align 8
  ret ptr %0
}

; Function Attrs: mustprogress nounwind uwtable
define linkonce_odr hidden noundef ptr @_ZNK6vectorIjLb0EjE3endEv(ptr noundef nonnull align 8 dereferenceable(8) %this) #4 comdat align 2 {
entry:
  %this.addr = alloca ptr, align 8
  store ptr %this, ptr %this.addr, align 8
  %this1 = load ptr, ptr %this.addr, align 8
  %m_data = getelementptr inbounds %class.vector.16, ptr %this1, i32 0, i32 0
  %0 = load ptr, ptr %m_data, align 8
  %call = call noundef i32 @_ZNK6vectorIjLb0EjE4sizeEv(ptr noundef nonnull align 8 dereferenceable(8) %this1)
  %idx.ext = zext i32 %call to i64
  %add.ptr = getelementptr inbounds i32, ptr %0, i64 %idx.ext
  ret ptr %add.ptr
}

; Function Attrs: mustprogress nounwind uwtable
define linkonce_odr hidden noundef ptr @_ZNK6vectorIjLb0EjE5beginEv(ptr noundef nonnull align 8 dereferenceable(8) %this) #4 comdat align 2 {
entry:
  %this.addr = alloca ptr, align 8
  store ptr %this, ptr %this.addr, align 8
  %this1 = load ptr, ptr %this.addr, align 8
  %m_data = getelementptr inbounds %class.vector.16, ptr %this1, i32 0, i32 0
  %0 = load ptr, ptr %m_data, align 8
  ret ptr %0
}

; Function Attrs: mustprogress nounwind uwtable
define linkonce_odr hidden noundef nonnull align 8 dereferenceable(8) ptr @_ZNK3nla6mon_eq4varsEv(ptr noundef nonnull align 8 dereferenceable(16) %this) #4 comdat align 2 {
entry:
  %this.addr = alloca ptr, align 8
  store ptr %this, ptr %this.addr, align 8
  %this1 = load ptr, ptr %this.addr, align 8
  %m_vs = getelementptr inbounds %"class.nla::mon_eq", ptr %this1, i32 0, i32 1
  ret ptr %m_vs
}

; Function Attrs: mustprogress uwtable
define hidden noundef ptr @_ZN3nla15monomial_bounds13explain_fixedERKNS_5monicERK8rational(ptr noundef nonnull align 8 dereferenceable(192) %this, ptr noundef nonnull align 8 dereferenceable(34) %m, ptr noundef nonnull align 8 dereferenceable(32) %k) #5 align 2 {
entry:
  %retval = alloca ptr, align 8
  %this.addr = alloca ptr, align 8
  %m.addr = alloca ptr, align 8
  %k.addr = alloca ptr, align 8
  %dep = alloca ptr, align 8
  %update_dep = alloca %class.anon, align 8
  %__range2 = alloca ptr, align 8
  %__begin2 = alloca ptr, align 8
  %__end2 = alloca ptr, align 8
  %j = alloca i32, align 4
  %__range29 = alloca ptr, align 8
  %__begin211 = alloca ptr, align 8
  %__end213 = alloca ptr, align 8
  %j18 = alloca i32, align 4
  store ptr %this, ptr %this.addr, align 8
  store ptr %m, ptr %m.addr, align 8
  store ptr %k, ptr %k.addr, align 8
  %this1 = load ptr, ptr %this.addr, align 8
  store ptr null, ptr %dep, align 8
  %0 = getelementptr inbounds %class.anon, ptr %update_dep, i32 0, i32 0
  store ptr %dep, ptr %0, align 8
  %1 = getelementptr inbounds %class.anon, ptr %update_dep, i32 0, i32 1
  store ptr %this1, ptr %1, align 8
  %2 = load ptr, ptr %k.addr, align 8
  %call = call noundef zeroext i1 @_ZeqRK8rationali(ptr noundef nonnull align 8 dereferenceable(32) %2, i32 noundef 0)
  br i1 %call, label %if.then, label %if.else

if.then:                                          ; preds = %entry
  %3 = load ptr, ptr %m.addr, align 8
  %call2 = call noundef nonnull align 8 dereferenceable(8) ptr @_ZNK3nla6mon_eq4varsEv(ptr noundef nonnull align 8 dereferenceable(16) %3)
  store ptr %call2, ptr %__range2, align 8
  %4 = load ptr, ptr %__range2, align 8
  %call3 = call noundef ptr @_ZNK6vectorIjLb0EjE5beginEv(ptr noundef nonnull align 8 dereferenceable(8) %4)
  store ptr %call3, ptr %__begin2, align 8
  %5 = load ptr, ptr %__range2, align 8
  %call4 = call noundef ptr @_ZNK6vectorIjLb0EjE3endEv(ptr noundef nonnull align 8 dereferenceable(8) %5)
  store ptr %call4, ptr %__end2, align 8
  br label %for.cond

for.cond:                                         ; preds = %for.inc, %if.then
  %6 = load ptr, ptr %__begin2, align 8
  %7 = load ptr, ptr %__end2, align 8
  %cmp = icmp ne ptr %6, %7
  br i1 %cmp, label %for.body, label %for.end

for.body:                                         ; preds = %for.cond
  %8 = load ptr, ptr %__begin2, align 8
  %9 = load i32, ptr %8, align 4
  store i32 %9, ptr %j, align 4
  %call5 = call noundef nonnull align 8 dereferenceable(4720) ptr @_ZN3nla6common1cEv(ptr noundef nonnull align 8 dereferenceable(184) %this1)
  %10 = load i32, ptr %j, align 4
  %call6 = call noundef zeroext i1 @_ZNK3nla4core20var_is_fixed_to_zeroEj(ptr noundef nonnull align 8 dereferenceable(4720) %call5, i32 noundef %10)
  br i1 %call6, label %if.then7, label %if.end

if.then7:                                         ; preds = %for.body
  %11 = load i32, ptr %j, align 4
  %call8 = call noundef ptr @"_ZZN3nla15monomial_bounds13explain_fixedERKNS_5monicERK8rationalENK3$_0clEj"(ptr noundef nonnull align 8 dereferenceable(16) %update_dep, i32 noundef %11)
  store ptr %call8, ptr %retval, align 8
  br label %return

if.end:                                           ; preds = %for.body
  br label %for.inc

for.inc:                                          ; preds = %if.end
  %12 = load ptr, ptr %__begin2, align 8
  %incdec.ptr = getelementptr inbounds i32, ptr %12, i32 1
  store ptr %incdec.ptr, ptr %__begin2, align 8
  br label %for.cond

for.end:                                          ; preds = %for.cond
  br label %if.end27

if.else:                                          ; preds = %entry
  %13 = load ptr, ptr %m.addr, align 8
  %call10 = call noundef nonnull align 8 dereferenceable(8) ptr @_ZNK3nla6mon_eq4varsEv(ptr noundef nonnull align 8 dereferenceable(16) %13)
  store ptr %call10, ptr %__range29, align 8
  %14 = load ptr, ptr %__range29, align 8
  %call12 = call noundef ptr @_ZNK6vectorIjLb0EjE5beginEv(ptr noundef nonnull align 8 dereferenceable(8) %14)
  store ptr %call12, ptr %__begin211, align 8
  %15 = load ptr, ptr %__range29, align 8
  %call14 = call noundef ptr @_ZNK6vectorIjLb0EjE3endEv(ptr noundef nonnull align 8 dereferenceable(8) %15)
  store ptr %call14, ptr %__end213, align 8
  br label %for.cond15

for.cond15:                                       ; preds = %for.inc24, %if.else
  %16 = load ptr, ptr %__begin211, align 8
  %17 = load ptr, ptr %__end213, align 8
  %cmp16 = icmp ne ptr %16, %17
  br i1 %cmp16, label %for.body17, label %for.end26

for.body17:                                       ; preds = %for.cond15
  %18 = load ptr, ptr %__begin211, align 8
  %19 = load i32, ptr %18, align 4
  store i32 %19, ptr %j18, align 4
  %call19 = call noundef nonnull align 8 dereferenceable(4720) ptr @_ZN3nla6common1cEv(ptr noundef nonnull align 8 dereferenceable(184) %this1)
  %20 = load i32, ptr %j18, align 4
  %call20 = call noundef zeroext i1 @_ZNK3nla4core12var_is_fixedEj(ptr noundef nonnull align 8 dereferenceable(4720) %call19, i32 noundef %20)
  br i1 %call20, label %if.then21, label %if.end23

if.then21:                                        ; preds = %for.body17
  %21 = load i32, ptr %j18, align 4
  %call22 = call noundef ptr @"_ZZN3nla15monomial_bounds13explain_fixedERKNS_5monicERK8rationalENK3$_0clEj"(ptr noundef nonnull align 8 dereferenceable(16) %update_dep, i32 noundef %21)
  br label %if.end23

if.end23:                                         ; preds = %if.then21, %for.body17
  br label %for.inc24

for.inc24:                                        ; preds = %if.end23
  %22 = load ptr, ptr %__begin211, align 8
  %incdec.ptr25 = getelementptr inbounds i32, ptr %22, i32 1
  store ptr %incdec.ptr25, ptr %__begin211, align 8
  br label %for.cond15

for.end26:                                        ; preds = %for.cond15
  br label %if.end27

if.end27:                                         ; preds = %for.end26, %for.end
  %23 = load ptr, ptr %dep, align 8
  store ptr %23, ptr %retval, align 8
  br label %return

return:                                           ; preds = %if.end27, %if.then7
  %24 = load ptr, ptr %retval, align 8
  ret ptr %24
}