; Function Attrs: mustprogress uwtable
define hidden noundef ptr @_ZN3nla15monomial_bounds13explain_fixedERKNS_5monicERK8rational(ptr noundef nonnull align 8 dereferenceable(192) %this, ptr nocapture noundef nonnull readonly align 8 dereferenceable(34) %m, ptr noundef nonnull align 8 dereferenceable(32) %k) local_unnamed_addr #3 align 2 {
entry:
  %dep = alloca ptr, align 8
  %update_dep = alloca %class.anon, align 8
  store ptr null, ptr %dep, align 8
  store ptr %dep, ptr %update_dep, align 8
  %0 = getelementptr inbounds i8, ptr %update_dep, i64 8
  store ptr %this, ptr %0, align 8
  %call = call noundef zeroext i1 @_ZeqRK8rationali(ptr noundef nonnull align 8 dereferenceable(32) %k, i32 noundef 0)
  %m_vs.i = getelementptr inbounds i8, ptr %m, i64 8
  %1 = load ptr, ptr %m_vs.i, align 8
  %cmp.i.i = icmp eq ptr %1, null
  br i1 %call, label %if.then, label %if.else

if.then:                                          ; preds = %entry
  br i1 %cmp.i.i, label %if.end27, label %_ZNK6vectorIjLb0EjE3endEv.exit

_ZNK6vectorIjLb0EjE3endEv.exit:                   ; preds = %if.then
  %arrayidx.i.i = getelementptr inbounds i8, ptr %1, i64 -4
  %2 = load i32, ptr %arrayidx.i.i, align 4
  %3 = zext i32 %2 to i64
  %add.ptr.i = getelementptr inbounds i32, ptr %1, i64 %3
  %cmp.not20 = icmp eq i32 %2, 0
  br i1 %cmp.not20, label %if.end27, label %for.body

for.cond:                                         ; preds = %for.body
  %incdec.ptr = getelementptr inbounds i8, ptr %__begin2.021, i64 4
  %cmp.not = icmp eq ptr %incdec.ptr, %add.ptr.i
  br i1 %cmp.not, label %if.end27, label %for.body

for.body:                                         ; preds = %_ZNK6vectorIjLb0EjE3endEv.exit, %for.cond
  %__begin2.021 = phi ptr [ %incdec.ptr, %for.cond ], [ %1, %_ZNK6vectorIjLb0EjE3endEv.exit ]
  %4 = load i32, ptr %__begin2.021, align 4
  %5 = load ptr, ptr %this, align 8
  %call6 = call noundef zeroext i1 @_ZNK3nla4core20var_is_fixed_to_zeroEj(ptr noundef nonnull align 8 dereferenceable(4720) %5, i32 noundef %4)
  br i1 %call6, label %if.then7, label %for.cond

if.then7:                                         ; preds = %for.body
  %call8 = call fastcc noundef ptr @"_ZZN3nla15monomial_bounds13explain_fixedERKNS_5monicERK8rationalENK3$_0clEj"(ptr noundef nonnull align 8 dereferenceable(16) %update_dep, i32 noundef %4)
  br label %return

if.else:                                          ; preds = %entry
  br i1 %cmp.i.i, label %if.end27, label %_ZNK6vectorIjLb0EjE3endEv.exit16

_ZNK6vectorIjLb0EjE3endEv.exit16:                 ; preds = %if.else
  %arrayidx.i.i13 = getelementptr inbounds i8, ptr %1, i64 -4
  %6 = load i32, ptr %arrayidx.i.i13, align 4
  %7 = zext i32 %6 to i64
  %add.ptr.i15 = getelementptr inbounds i32, ptr %1, i64 %7
  %cmp16.not18 = icmp eq i32 %6, 0
  br i1 %cmp16.not18, label %if.end27, label %for.body17

for.body17:                                       ; preds = %_ZNK6vectorIjLb0EjE3endEv.exit16, %for.inc24
  %__begin211.019 = phi ptr [ %incdec.ptr25, %for.inc24 ], [ %1, %_ZNK6vectorIjLb0EjE3endEv.exit16 ]
  %8 = load i32, ptr %__begin211.019, align 4
  %9 = load ptr, ptr %this, align 8
  %call20 = call noundef zeroext i1 @_ZNK3nla4core12var_is_fixedEj(ptr noundef nonnull align 8 dereferenceable(4720) %9, i32 noundef %8)
  br i1 %call20, label %if.then21, label %for.inc24

if.then21:                                        ; preds = %for.body17
  %call22 = call fastcc noundef ptr @"_ZZN3nla15monomial_bounds13explain_fixedERKNS_5monicERK8rationalENK3$_0clEj"(ptr noundef nonnull align 8 dereferenceable(16) %update_dep, i32 noundef %8)
  br label %for.inc24

for.inc24:                                        ; preds = %for.body17, %if.then21
  %incdec.ptr25 = getelementptr inbounds i8, ptr %__begin211.019, i64 4
  %cmp16.not = icmp eq ptr %incdec.ptr25, %add.ptr.i15
  br i1 %cmp16.not, label %if.end27, label %for.body17

if.end27:                                         ; preds = %for.inc24, %for.cond, %if.else, %if.then, %_ZNK6vectorIjLb0EjE3endEv.exit16, %_ZNK6vectorIjLb0EjE3endEv.exit
  %10 = load ptr, ptr %dep, align 8
  br label %return

return:                                           ; preds = %if.end27, %if.then7
  %retval.0 = phi ptr [ %call8, %if.then7 ], [ %10, %if.end27 ]
  ret ptr %retval.0
}